; Function Attrs: mustprogress nounwind uwtable
define hidden void @_ZN8GraphKit27set_arguments_for_java_callEP12CallJavaNode(ptr nocapture noundef nonnull readonly align 8 dereferenceable(84) %0, ptr noundef %1) local_unnamed_addr #0 align 2 {
  %3 = getelementptr inbounds i8, ptr %1, i64 136
  %4 = load ptr, ptr %3, align 8
  %5 = getelementptr inbounds i8, ptr %4, i64 48
  %6 = load ptr, ptr %5, align 8
  %7 = getelementptr inbounds i8, ptr %6, i64 48
  %8 = load i32, ptr %7, align 8
  %9 = getelementptr inbounds i8, ptr %4, i64 24
  %10 = load i32, ptr %9, align 4
  %11 = lshr i32 %10, 3
  %.lobit.i = and i32 %11, 1
  %12 = xor i32 %.lobit.i, 1
  %13 = add nsw i32 %12, %8
  %.not = icmp eq i32 %13, 0
  br i1 %.not, label %._crit_edge, label %.lr.ph

.lr.ph:                                           ; preds = %2
  %14 = getelementptr inbounds i8, ptr %0, i64 40
  %15 = getelementptr inbounds i8, ptr %1, i64 8
  %wide.trip.count = zext i32 %13 to i64
  br label %16

16:                                               ; preds = %.lr.ph, %_ZN4Node8init_reqEjPS_.exit
  %indvars.iv = phi i64 [ 0, %.lr.ph ], [ %indvars.iv.next, %_ZN4Node8init_reqEjPS_.exit ]
  %17 = load ptr, ptr %14, align 8
  %18 = getelementptr inbounds i8, ptr %17, i64 56
  %19 = load ptr, ptr %18, align 8
  %20 = getelementptr inbounds i8, ptr %19, i64 16
  %21 = load i32, ptr %20, align 8
  %22 = getelementptr inbounds i8, ptr %19, i64 32
  %23 = load i32, ptr %22, align 8
  %24 = trunc nuw i64 %indvars.iv to i32
  %25 = add i32 %21, %24
  %26 = add i32 %25, %23
  %27 = getelementptr inbounds i8, ptr %17, i64 8
  %28 = load ptr, ptr %27, align 8
  %29 = zext i32 %26 to i64
  %30 = getelementptr inbounds ptr, ptr %28, i64 %29
  %31 = load ptr, ptr %30, align 8
  %32 = add nuw i64 %indvars.iv, 5
  %33 = load ptr, ptr %15, align 8
  %34 = and i64 %32, 4294967295
  %35 = getelementptr inbounds ptr, ptr %33, i64 %34
  store ptr %31, ptr %35, align 8
  %.not.i = icmp eq ptr %31, null
  br i1 %.not.i, label %_ZN4Node8init_reqEjPS_.exit, label %36

36:                                               ; preds = %16
  %37 = getelementptr inbounds i8, ptr %31, i64 16
  %38 = load ptr, ptr %37, align 8
  %39 = icmp eq ptr %38, null
  br i1 %39, label %_ZN4Node8init_reqEjPS_.exit, label %40

40:                                               ; preds = %36
  %41 = getelementptr inbounds i8, ptr %31, i64 32
  %42 = load i32, ptr %41, align 8
  %43 = getelementptr inbounds i8, ptr %31, i64 36
  %44 = load i32, ptr %43, align 4
  %45 = icmp eq i32 %42, %44
  br i1 %45, label %46, label %47

46:                                               ; preds = %40
  tail call void @_ZN4Node8out_growEj(ptr noundef nonnull align 8 dereferenceable(52) %31, i32 noundef %42) #13
  %.pre.i.i = load ptr, ptr %37, align 8
  %.pre2.i.i = load i32, ptr %41, align 8
  br label %47

47:                                               ; preds = %46, %40
  %48 = phi i32 [ %.pre2.i.i, %46 ], [ %42, %40 ]
  %49 = phi ptr [ %.pre.i.i, %46 ], [ %38, %40 ]
  %50 = add i32 %48, 1
  store i32 %50, ptr %41, align 8
  %51 = zext i32 %48 to i64
  %52 = getelementptr inbounds ptr, ptr %49, i64 %51
  store ptr %1, ptr %52, align 8
  br label %_ZN4Node8init_reqEjPS_.exit

_ZN4Node8init_reqEjPS_.exit:                      ; preds = %16, %36, %47
  %indvars.iv.next = add nuw nsw i64 %indvars.iv, 1
  %exitcond.not = icmp eq i64 %indvars.iv.next, %wide.trip.count
  br i1 %exitcond.not, label %._crit_edge, label %16, !llvm.loop !32

._crit_edge:                                      ; preds = %_ZN4Node8init_reqEjPS_.exit, %2
  ret void
}